; ModuleID = 'source-C-CXX/2/94.c'
source_filename = "source-C-CXX/2/94.c"
target datalayout = "e-m:e-p270:32:32-p271:32:32-p272:64:64-i64:64-f80:128-n8:16:32:64-S128"
target triple = "x86_64-pc-linux-gnu"

@.str = private unnamed_addr constant [6 x i8] c"%d %d\00", align 1
@.str.1 = private unnamed_addr constant [3 x i8] c"%d\00", align 1
@.str.2 = private unnamed_addr constant [4 x i8] c"yes\00", align 1
@.str.3 = private unnamed_addr constant [3 x i8] c"no\00", align 1

; Function Attrs: nofree nounwind sspstrong uwtable
define dso_local i32 @main() local_unnamed_addr #0 {
  %1 = alloca i32, align 4
  %2 = alloca i32, align 4
  %3 = alloca [1000 x i32], align 16
  %4 = bitcast i32* %1 to i8*
  call void @llvm.lifetime.start.p0i8(i64 4, i8* nonnull %4) #3
  %5 = bitcast i32* %2 to i8*
  call void @llvm.lifetime.start.p0i8(i64 4, i8* nonnull %5) #3
  %6 = bitcast [1000 x i32]* %3 to i8*
  call void @llvm.lifetime.start.p0i8(i64 4000, i8* nonnull %6) #3
  %7 = call i32 (i8*, ...) @__isoc99_scanf(i8* getelementptr inbounds ([6 x i8], [6 x i8]* @.str, i64 0, i64 0), i32* nonnull %1, i32* nonnull %2)
  %8 = load i32, i32* %1, align 4, !tbaa !5
  %9 = icmp sgt i32 %8, 0
  br i1 %9, label %12, label %62

10:                                               ; preds = %12
  %11 = icmp sgt i32 %17, 0
  br i1 %11, label %20, label %62

12:                                               ; preds = %0, %12
  %13 = phi i64 [ %16, %12 ], [ 0, %0 ]
  %14 = getelementptr inbounds [1000 x i32], [1000 x i32]* %3, i64 0, i64 %13
  %15 = call i32 (i8*, ...) @__isoc99_scanf(i8* getelementptr inbounds ([3 x i8], [3 x i8]* @.str.1, i64 0, i64 0), i32* nonnull %14)
  %16 = add nuw nsw i64 %13, 1
  %17 = load i32, i32* %1, align 4, !tbaa !5
  %18 = sext i32 %17 to i64
  %19 = icmp slt i64 %16, %18
  br i1 %19, label %12, label %10, !llvm.loop !9

20:                                               ; preds = %10, %57
  %21 = phi i64 [ %25, %57 ], [ 0, %10 ]
  %22 = phi i64 [ %61, %57 ], [ 1, %10 ]
  %23 = phi i32 [ %58, %57 ], [ %17, %10 ]
  %24 = phi i32 [ %47, %57 ], [ undef, %10 ]
  %25 = add nuw nsw i64 %21, 1
  %26 = load i32, i32* %2, align 4
  %27 = sext i32 %23 to i64
  %28 = icmp slt i64 %25, %27
  br i1 %28, label %29, label %45

29:                                               ; preds = %20
  %30 = getelementptr inbounds [1000 x i32], [1000 x i32]* %3, i64 0, i64 %21
  %31 = load i32, i32* %30, align 4, !tbaa !5
  %32 = zext i32 %23 to i64
  br label %35

33:                                               ; preds = %35
  %34 = icmp eq i64 %41, %32
  br i1 %34, label %45, label %35, !llvm.loop !11

35:                                               ; preds = %29, %33
  %36 = phi i64 [ %22, %29 ], [ %41, %33 ]
  %37 = getelementptr inbounds [1000 x i32], [1000 x i32]* %3, i64 0, i64 %36
  %38 = load i32, i32* %37, align 4, !tbaa !5
  %39 = add nsw i32 %38, %31
  %40 = icmp eq i32 %39, %26
  %41 = add nuw nsw i64 %36, 1
  br i1 %40, label %42, label %33

42:                                               ; preds = %35
  %43 = call i32 (i8*, ...) @printf(i8* nonnull dereferenceable(1) getelementptr inbounds ([4 x i8], [4 x i8]* @.str.2, i64 0, i64 0))
  %44 = load i32, i32* %2, align 4, !tbaa !5
  br label %45

45:                                               ; preds = %33, %20, %42
  %46 = phi i32 [ %44, %42 ], [ %26, %20 ], [ %26, %33 ]
  %47 = phi i32 [ %26, %42 ], [ %24, %20 ], [ %39, %33 ]
  %48 = icmp eq i32 %47, %46
  br i1 %48, label %62, label %49

49:                                               ; preds = %45
  %50 = load i32, i32* %1, align 4, !tbaa !5
  %51 = add nsw i32 %50, -1
  %52 = zext i32 %51 to i64
  %53 = icmp eq i64 %21, %52
  br i1 %53, label %54, label %57

54:                                               ; preds = %49
  %55 = call i32 (i8*, ...) @printf(i8* nonnull dereferenceable(1) getelementptr inbounds ([3 x i8], [3 x i8]* @.str.3, i64 0, i64 0))
  %56 = load i32, i32* %1, align 4, !tbaa !5
  br label %57

57:                                               ; preds = %49, %54
  %58 = phi i32 [ %50, %49 ], [ %56, %54 ]
  %59 = sext i32 %58 to i64
  %60 = icmp slt i64 %25, %59
  %61 = add nuw nsw i64 %22, 1
  br i1 %60, label %20, label %62, !llvm.loop !12

62:                                               ; preds = %57, %45, %0, %10
  call void @llvm.lifetime.end.p0i8(i64 4000, i8* nonnull %6) #3
  call void @llvm.lifetime.end.p0i8(i64 4, i8* nonnull %5) #3
  call void @llvm.lifetime.end.p0i8(i64 4, i8* nonnull %4) #3
  ret i32 0
}

; Function Attrs: argmemonly mustprogress nofree nosync nounwind willreturn
declare void @llvm.lifetime.start.p0i8(i64 immarg, i8* nocapture) #1

; Function Attrs: nofree nounwind
declare noundef i32 @__isoc99_scanf(i8* nocapture noundef readonly, ...) local_unnamed_addr #2

; Function Attrs: nofree nounwind
declare noundef i32 @printf(i8* nocapture noundef readonly, ...) local_unnamed_addr #2

; Function Attrs: argmemonly mustprogress nofree nosync nounwind willreturn
declare void @llvm.lifetime.end.p0i8(i64 immarg, i8* nocapture) #1


!llvm.module.flags = !{!0, !1, !2, !3}
!llvm.ident = !{!4}

!0 = !{i32 1, !"wchar_size", i32 4}
!1 = !{i32 7, !"PIC Level", i32 2}
!2 = !{i32 7, !"PIE Level", i32 2}
!3 = !{i32 7, !"uwtable", i32 1}
!4 = !{!"clang version 13.0.0"}
!5 = !{!6, !6, i64 0}
!6 = !{!"int", !7, i64 0}
!7 = !{!"omnipotent char", !8, i64 0}
!8 = !{!"Simple C/C++ TBAA"}
!9 = distinct !{!9, !10}
!10 = !{!"llvm.loop.mustprogress"}
!11 = distinct !{!11, !10}
!12 = distinct !{!12, !10}
